target datalayout = "e-m:e-p270:32:32-p271:32:32-p272:64:64-i64:64-i128:128-f80:128-n8:16:32:64-S128"
target triple = "x86_64-pc-linux-gnu"

%struct._ir_array = type { ptr, i32 }

; Function Attrs: nounwind uwtable
define hidden void @ir_array_grow(ptr noundef %0, i32 noundef %1) #0 {
  %3 = alloca ptr, align 8
  %4 = alloca i32, align 4
  store ptr %0, ptr %3, align 8
  store i32 %1, ptr %4, align 4
  %5 = load ptr, ptr %3, align 8
  %6 = getelementptr inbounds %struct._ir_array, ptr %5, i32 0, i32 0
  %7 = load ptr, ptr %6, align 8
  %8 = load i32, ptr %4, align 4
  %9 = zext i32 %8 to i64
  %10 = mul i64 %9, 4
  %11 = call ptr @_erealloc(ptr noundef %7, i64 noundef %10) #14
  %12 = load ptr, ptr %3, align 8
  %13 = getelementptr inbounds %struct._ir_array, ptr %12, i32 0, i32 0
  store ptr %11, ptr %13, align 8
  %14 = load i32, ptr %4, align 4
  %15 = load ptr, ptr %3, align 8
  %16 = getelementptr inbounds %struct._ir_array, ptr %15, i32 0, i32 1
  store i32 %14, ptr %16, align 8
  ret void
}