; Function Attrs: nounwind uwtable
define hidden void @ir_array_grow(ptr nocapture noundef %0, i32 noundef %1) local_unnamed_addr #0 {
  %3 = load ptr, ptr %0, align 8
  %4 = zext i32 %1 to i64
  %5 = shl nuw nsw i64 %4, 2
  %6 = tail call ptr @_erealloc(ptr noundef %3, i64 noundef %5) #24
  store ptr %6, ptr %0, align 8
  %7 = getelementptr inbounds i8, ptr %0, i64 8
  store i32 %1, ptr %7, align 8
  ret void
}